target datalayout = "e-m:e-p270:32:32-p271:32:32-p272:64:64-i64:64-i128:128-f80:128-n8:16:32:64-S128"
target triple = "x86_64-unknown-linux-gnu"

%struct.anon = type { ptr, ptr }

@.str = private unnamed_addr constant [27 x i8] c"../qemu/monitor/qmp-cmds.c\00", align 1
@qmp_add_client.protocol_table = internal constant [3 x %struct.anon] [%struct.anon { ptr @.str.4, ptr @qmp_add_client_spice }, %struct.anon { ptr @.str.5, ptr @qmp_add_client_vnc }, %struct.anon { ptr @.str.6, ptr @qmp_add_client_dbus_display }], align 16
@__func__.qmp_add_client = private unnamed_addr constant [15 x i8] c"qmp_add_client\00", align 1
@.str.7 = private unnamed_addr constant [37 x i8] c"parameter @fdname must name a socket\00", align 1

; Function Attrs: nounwind sspstrong uwtable
define dso_local void @qmp_add_client(ptr noundef %protocol, ptr noundef %fdname, i1 noundef zeroext %has_skipauth, i1 noundef zeroext %skipauth, i1 noundef zeroext %has_tls, i1 noundef zeroext %tls, ptr noundef %errp) #0 {
entry:
  %protocol.addr = alloca ptr, align 8
  %fdname.addr = alloca ptr, align 8
  %has_skipauth.addr = alloca i8, align 1
  %skipauth.addr = alloca i8, align 1
  %has_tls.addr = alloca i8, align 1
  %tls.addr = alloca i8, align 1
  %errp.addr = alloca ptr, align 8
  %fd = alloca i32, align 4
  %i = alloca i32, align 4
  store ptr %protocol, ptr %protocol.addr, align 8
  store ptr %fdname, ptr %fdname.addr, align 8
  %frombool = zext i1 %has_skipauth to i8
  store i8 %frombool, ptr %has_skipauth.addr, align 1
  %frombool1 = zext i1 %skipauth to i8
  store i8 %frombool1, ptr %skipauth.addr, align 1
  %frombool2 = zext i1 %has_tls to i8
  store i8 %frombool2, ptr %has_tls.addr, align 1
  %frombool3 = zext i1 %tls to i8
  store i8 %frombool3, ptr %tls.addr, align 1
  store ptr %errp, ptr %errp.addr, align 8
  %call = call ptr @monitor_cur()
  %0 = load ptr, ptr %fdname.addr, align 8
  %1 = load ptr, ptr %errp.addr, align 8
  %call4 = call i32 @monitor_get_fd(ptr noundef %call, ptr noundef %0, ptr noundef %1)
  store i32 %call4, ptr %fd, align 4
  %2 = load i32, ptr %fd, align 4
  %cmp = icmp slt i32 %2, 0
  br i1 %cmp, label %if.then, label %if.end

if.then:                                          ; preds = %entry
  br label %if.end31

if.end:                                           ; preds = %entry
  %3 = load i32, ptr %fd, align 4
  %call5 = call zeroext i1 @fd_is_socket(i32 noundef %3)
  br i1 %call5, label %if.end8, label %if.then6

if.then6:                                         ; preds = %if.end
  %4 = load ptr, ptr %errp.addr, align 8
  call void (ptr, ptr, i32, ptr, ptr, ...) @error_setg_internal(ptr noundef %4, ptr noundef @.str, i32 noundef 144, ptr noundef @__func__.qmp_add_client, ptr noundef @.str.7)
  %5 = load i32, ptr %fd, align 4
  %call7 = call i32 @close(i32 noundef %5)
  br label %if.end31

if.end8:                                          ; preds = %if.end
  store i32 0, ptr %i, align 4
  br label %for.cond

for.cond:                                         ; preds = %for.inc, %if.end8
  %6 = load i32, ptr %i, align 4
  %conv = sext i32 %6 to i64
  %cmp9 = icmp ult i64 %conv, 3
  br i1 %cmp9, label %for.body, label %for.end

for.body:                                         ; preds = %for.cond
  %7 = load ptr, ptr %protocol.addr, align 8
  %8 = load i32, ptr %i, align 4
  %idxprom = sext i32 %8 to i64
  %arrayidx = getelementptr [3 x %struct.anon], ptr @qmp_add_client.protocol_table, i64 0, i64 %idxprom
  %name = getelementptr inbounds %struct.anon, ptr %arrayidx, i32 0, i32 0
  %9 = load ptr, ptr %name, align 16
  %call11 = call i32 @strcmp(ptr noundef %7, ptr noundef %9) #8
  %tobool = icmp ne i32 %call11, 0
  br i1 %tobool, label %if.end23, label %if.then12

if.then12:                                        ; preds = %for.body
  %10 = load i32, ptr %i, align 4
  %idxprom13 = sext i32 %10 to i64
  %arrayidx14 = getelementptr [3 x %struct.anon], ptr @qmp_add_client.protocol_table, i64 0, i64 %idxprom13
  %add_client = getelementptr inbounds %struct.anon, ptr %arrayidx14, i32 0, i32 1
  %11 = load ptr, ptr %add_client, align 8
  %12 = load i32, ptr %fd, align 4
  %13 = load i8, ptr %has_skipauth.addr, align 1
  %tobool15 = trunc i8 %13 to i1
  %14 = load i8, ptr %skipauth.addr, align 1
  %tobool16 = trunc i8 %14 to i1
  %15 = load i8, ptr %has_tls.addr, align 1
  %tobool17 = trunc i8 %15 to i1
  %16 = load i8, ptr %tls.addr, align 1
  %tobool18 = trunc i8 %16 to i1
  %17 = load ptr, ptr %errp.addr, align 8
  %call19 = call zeroext i1 %11(i32 noundef %12, i1 noundef zeroext %tobool15, i1 noundef zeroext %tobool16, i1 noundef zeroext %tobool17, i1 noundef zeroext %tobool18, ptr noundef %17)
  br i1 %call19, label %if.end22, label %if.then20

if.then20:                                        ; preds = %if.then12
  %18 = load i32, ptr %fd, align 4
  %call21 = call i32 @close(i32 noundef %18)
  br label %if.end22

if.end22:                                         ; preds = %if.then20, %if.then12
  br label %if.end31

if.end23:                                         ; preds = %for.body
  br label %for.inc

for.inc:                                          ; preds = %if.end23
  %19 = load i32, ptr %i, align 4
  %inc = add i32 %19, 1
  store i32 %inc, ptr %i, align 4
  br label %for.cond, !llvm.loop !9

for.end:                                          ; preds = %for.cond
  %20 = load i32, ptr %fd, align 4
  %21 = load i8, ptr %has_skipauth.addr, align 1
  %tobool24 = trunc i8 %21 to i1
  %22 = load i8, ptr %skipauth.addr, align 1
  %tobool25 = trunc i8 %22 to i1
  %23 = load i8, ptr %has_tls.addr, align 1
  %tobool26 = trunc i8 %23 to i1
  %24 = load i8, ptr %tls.addr, align 1
  %tobool27 = trunc i8 %24 to i1
  %25 = load ptr, ptr %protocol.addr, align 8
  %26 = load ptr, ptr %errp.addr, align 8
  %call28 = call zeroext i1 @qmp_add_client_char(i32 noundef %20, i1 noundef zeroext %tobool24, i1 noundef zeroext %tobool25, i1 noundef zeroext %tobool26, i1 noundef zeroext %tobool27, ptr noundef %25, ptr noundef %26)
  br i1 %call28, label %if.end31, label %if.then29

if.then29:                                        ; preds = %for.end
  %27 = load i32, ptr %fd, align 4
  %call30 = call i32 @close(i32 noundef %27)
  br label %if.end31

if.end31:                                         ; preds = %if.then29, %for.end, %if.end22, %if.then6, %if.then
  ret void
}