; Function Attrs: nounwind sspstrong uwtable
define dso_local void @qmp_add_client(ptr noundef %protocol, ptr noundef %fdname, i1 noundef zeroext %has_skipauth, i1 noundef zeroext %skipauth, i1 noundef zeroext %has_tls, i1 noundef zeroext %tls, ptr noundef %errp) local_unnamed_addr #0 {
entry:
  %call = tail call ptr @monitor_cur() #6
  %call4 = tail call i32 @monitor_get_fd(ptr noundef %call, ptr noundef %fdname, ptr noundef %errp) #6
  %cmp = icmp slt i32 %call4, 0
  br i1 %cmp, label %if.end31, label %if.end

if.end:                                           ; preds = %entry
  %call5 = tail call zeroext i1 @fd_is_socket(i32 noundef %call4) #6
  br i1 %call5, label %for.body, label %if.then6

if.then6:                                         ; preds = %if.end
  tail call void (ptr, ptr, i32, ptr, ptr, ...) @error_setg_internal(ptr noundef %errp, ptr noundef nonnull @.str, i32 noundef 144, ptr noundef nonnull @__func__.qmp_add_client, ptr noundef nonnull @.str.7) #6
  br label %if.end31.sink.split

for.cond:                                         ; preds = %for.body
  %indvars.iv.next = add nuw nsw i64 %indvars.iv, 1
  %exitcond.not = icmp eq i64 %indvars.iv.next, 3
  br i1 %exitcond.not, label %for.end, label %for.body, !llvm.loop !8

for.body:                                         ; preds = %if.end, %for.cond
  %indvars.iv = phi i64 [ %indvars.iv.next, %for.cond ], [ 0, %if.end ]
  %arrayidx = getelementptr [3 x %struct.anon], ptr @qmp_add_client.protocol_table, i64 0, i64 %indvars.iv
  %0 = load ptr, ptr %arrayidx, align 16
  %call11 = tail call i32 @strcmp(ptr noundef nonnull dereferenceable(1) %protocol, ptr noundef nonnull dereferenceable(1) %0) #7
  %tobool.not = icmp eq i32 %call11, 0
  br i1 %tobool.not, label %if.then12, label %for.cond

if.then12:                                        ; preds = %for.body
  %add_client = getelementptr inbounds nuw i8, ptr %arrayidx, i64 8
  %1 = load ptr, ptr %add_client, align 8
  %call19 = tail call zeroext i1 %1(i32 noundef %call4, i1 noundef zeroext %has_skipauth, i1 noundef zeroext %skipauth, i1 noundef zeroext %has_tls, i1 noundef zeroext %tls, ptr noundef %errp) #6
  br i1 %call19, label %if.end31, label %if.end31.sink.split

for.end:                                          ; preds = %for.cond
  %call28 = tail call zeroext i1 @qmp_add_client_char(i32 noundef %call4, i1 noundef zeroext %has_skipauth, i1 noundef zeroext %skipauth, i1 noundef zeroext %has_tls, i1 noundef zeroext %tls, ptr noundef nonnull %protocol, ptr noundef %errp) #6
  br i1 %call28, label %if.end31, label %if.end31.sink.split

if.end31.sink.split:                              ; preds = %for.end, %if.then12, %if.then6
  %call21 = tail call i32 @close(i32 noundef %call4) #6
  br label %if.end31

if.end31:                                         ; preds = %if.end31.sink.split, %if.then12, %entry, %for.end
  ret void
}